target datalayout = "e-m:e-p270:32:32-p271:32:32-p272:64:64-i64:64-i128:128-f80:128-n8:16:32:64-S128"
target triple = "x86_64-pc-linux-gnu"

%struct.nstime_t = type { i64, i32 }

@hf_afs_ubik_version_epoch = internal global i32 0, align 4
@hf_afs_ubik_version_counter = internal global i32 0, align 4
@ett_afs_ubikver = internal global i32 0, align 4
@.str.967 = private unnamed_addr constant [25 x i8] c"UBIK Version (%s): %u.%u\00", align 1
@.str.968 = private unnamed_addr constant [2 x i8] c"0\00", align 1

; Function Attrs: null_pointer_is_valid sspstrong uwtable
define internal void @OUT_UBIKVERSION(ptr noundef %0, ptr noundef %1) #0 {
  %3 = alloca ptr, align 8
  %4 = alloca ptr, align 8
  %5 = alloca i32, align 4
  %6 = alloca i32, align 4
  %7 = alloca %struct.nstime_t, align 8
  store ptr %0, ptr %3, align 8
  store ptr %1, ptr %4, align 8
  call void @llvm.lifetime.start.p0(i64 4, ptr %5) #9
  call void @llvm.lifetime.start.p0(i64 4, ptr %6) #9
  call void @llvm.lifetime.start.p0(i64 16, ptr %7) #9
  %8 = load ptr, ptr %3, align 8
  %9 = call ptr @ptvcursor_tvbuff(ptr noundef %8)
  %10 = load ptr, ptr %3, align 8
  %11 = call i32 @ptvcursor_current_offset(ptr noundef %10)
  %12 = call i32 @tvb_get_ntohl(ptr noundef %9, i32 noundef %11)
  store i32 %12, ptr %5, align 4
  %13 = load ptr, ptr %3, align 8
  %14 = call ptr @ptvcursor_tvbuff(ptr noundef %13)
  %15 = load ptr, ptr %3, align 8
  %16 = call i32 @ptvcursor_current_offset(ptr noundef %15)
  %17 = add i32 %16, 4
  %18 = call i32 @tvb_get_ntohl(ptr noundef %14, i32 noundef %17)
  store i32 %18, ptr %6, align 4
  %19 = load i32, ptr %5, align 4
  %20 = zext i32 %19 to i64
  %21 = getelementptr inbounds nuw %struct.nstime_t, ptr %7, i32 0, i32 0
  store i64 %20, ptr %21, align 8
  %22 = getelementptr inbounds nuw %struct.nstime_t, ptr %7, i32 0, i32 1
  store i32 0, ptr %22, align 8
  %23 = load ptr, ptr %3, align 8
  %24 = load i32, ptr @ett_afs_ubikver, align 4
  %25 = load ptr, ptr %4, align 8
  %26 = load i32, ptr %5, align 4
  %27 = load i32, ptr %6, align 4
  %28 = call ptr (ptr, i32, i32, ptr, ...) @ptvcursor_add_text_with_subtree(ptr noundef %23, i32 noundef -1, i32 noundef %24, ptr noundef @.str.967, ptr noundef %25, i32 noundef %26, i32 noundef %27)
  %29 = load i32, ptr %5, align 4
  %30 = icmp ne i32 %29, 0
  br i1 %30, label %31, label %40

31:                                               ; preds = %2
  %32 = load ptr, ptr %3, align 8
  %33 = call ptr @ptvcursor_tree(ptr noundef %32)
  %34 = load i32, ptr @hf_afs_ubik_version_epoch, align 4
  %35 = load ptr, ptr %3, align 8
  %36 = call ptr @ptvcursor_tvbuff(ptr noundef %35)
  %37 = load ptr, ptr %3, align 8
  %38 = call i32 @ptvcursor_current_offset(ptr noundef %37)
  %39 = call ptr @proto_tree_add_time(ptr noundef %33, i32 noundef %34, ptr noundef %36, i32 noundef %38, i32 noundef 4, ptr noundef %7)
  br label %49

40:                                               ; preds = %2
  %41 = load ptr, ptr %3, align 8
  %42 = call ptr @ptvcursor_tree(ptr noundef %41)
  %43 = load i32, ptr @hf_afs_ubik_version_epoch, align 4
  %44 = load ptr, ptr %3, align 8
  %45 = call ptr @ptvcursor_tvbuff(ptr noundef %44)
  %46 = load ptr, ptr %3, align 8
  %47 = call i32 @ptvcursor_current_offset(ptr noundef %46)
  %48 = call ptr (ptr, i32, ptr, i32, i32, ptr, ptr, ...) @proto_tree_add_time_format_value(ptr noundef %42, i32 noundef %43, ptr noundef %45, i32 noundef %47, i32 noundef 4, ptr noundef %7, ptr noundef @.str.968)
  br label %49

49:                                               ; preds = %40, %31
  %50 = load ptr, ptr %3, align 8
  call void @ptvcursor_advance(ptr noundef %50, i32 noundef 4)
  %51 = load ptr, ptr %3, align 8
  %52 = load i32, ptr @hf_afs_ubik_version_counter, align 4
  %53 = call ptr @ptvcursor_add(ptr noundef %51, i32 noundef %52, i32 noundef 4, i32 noundef 0)
  %54 = load ptr, ptr %3, align 8
  call void @ptvcursor_pop_subtree(ptr noundef %54)
  call void @llvm.lifetime.end.p0(i64 16, ptr %7) #9
  call void @llvm.lifetime.end.p0(i64 4, ptr %6) #9
  call void @llvm.lifetime.end.p0(i64 4, ptr %5) #9
  ret void
}