; Function Attrs: null_pointer_is_valid sspstrong uwtable
define internal fastcc void @OUT_UBIKVERSION(ptr noundef %0, ptr noundef %1) unnamed_addr #0 {
  %3 = alloca %struct.nstime_t, align 8
  call void @llvm.lifetime.start.p0(i64 16, ptr nonnull %3) #8
  %4 = tail call ptr @ptvcursor_tvbuff(ptr noundef %0)
  %5 = tail call i32 @ptvcursor_current_offset(ptr noundef %0)
  %6 = tail call i32 @tvb_get_ntohl(ptr noundef %4, i32 noundef %5)
  %7 = tail call ptr @ptvcursor_tvbuff(ptr noundef %0)
  %8 = tail call i32 @ptvcursor_current_offset(ptr noundef %0)
  %9 = add i32 %8, 4
  %10 = tail call i32 @tvb_get_ntohl(ptr noundef %7, i32 noundef %9)
  %11 = zext i32 %6 to i64
  store i64 %11, ptr %3, align 8
  %12 = getelementptr inbounds nuw i8, ptr %3, i64 8
  store i32 0, ptr %12, align 8
  %13 = load i32, ptr @ett_afs_ubikver, align 4
  %14 = tail call ptr (ptr, i32, i32, ptr, ...) @ptvcursor_add_text_with_subtree(ptr noundef %0, i32 noundef -1, i32 noundef %13, ptr noundef nonnull @.str.967, ptr noundef %1, i32 noundef %6, i32 noundef %10)
  %.not = icmp eq i32 %6, 0
  %15 = tail call ptr @ptvcursor_tree(ptr noundef %0)
  %16 = load i32, ptr @hf_afs_ubik_version_epoch, align 4
  %17 = tail call ptr @ptvcursor_tvbuff(ptr noundef %0)
  %18 = tail call i32 @ptvcursor_current_offset(ptr noundef %0)
  br i1 %.not, label %21, label %19

19:                                               ; preds = %2
  %20 = call ptr @proto_tree_add_time(ptr noundef %15, i32 noundef %16, ptr noundef %17, i32 noundef %18, i32 noundef 4, ptr noundef nonnull %3)
  br label %23

21:                                               ; preds = %2
  %22 = call ptr (ptr, i32, ptr, i32, i32, ptr, ptr, ...) @proto_tree_add_time_format_value(ptr noundef %15, i32 noundef %16, ptr noundef %17, i32 noundef %18, i32 noundef 4, ptr noundef nonnull %3, ptr noundef nonnull @.str.968)
  br label %23

23:                                               ; preds = %21, %19
  call void @ptvcursor_advance(ptr noundef %0, i32 noundef 4)
  %24 = load i32, ptr @hf_afs_ubik_version_counter, align 4
  %25 = call ptr @ptvcursor_add(ptr noundef %0, i32 noundef %24, i32 noundef 4, i32 noundef 0)
  call void @ptvcursor_pop_subtree(ptr noundef %0)
  call void @llvm.lifetime.end.p0(i64 16, ptr nonnull %3) #8
  ret void
}